target datalayout = "e-m:e-p270:32:32-p271:32:32-p272:64:64-i64:64-i128:128-f80:128-n8:16:32:64-S128"
target triple = "x86_64-pc-linux-gnu"

@threadLock = internal global ptr null, align 8
@.str.9 = private unnamed_addr constant [30 x i8] c"threadControl_suspendThread()\00", align 1

; Function Attrs: nounwind uwtable
define internal void @releaseLocks() #0 {
  %1 = load ptr, ptr @threadLock, align 8
  call void @debugMonitorExit(ptr noundef %1)
  call void @commonRef_unlock()
  call void @stepControl_unlock()
  call void @eventHelper_unlock()
  call void @invoker_unlock()
  call void @eventHandler_unlock()
  ret void
}

; Function Attrs: nounwind uwtable
define internal void @getLocks() #0 {
  call void @eventHandler_lock()
  call void @invoker_lock()
  call void @eventHelper_lock()
  call void @stepControl_lock()
  call void @commonRef_lock()
  %1 = load ptr, ptr @threadLock, align 8
  call void @debugMonitorEnter(ptr noundef %1)
  ret void
}

; Function Attrs: nounwind uwtable
define internal void @postSuspend() #0 {
  call void @releaseLocks()
  ret void
}

; Function Attrs: nounwind uwtable
define internal void @preSuspend() #0 {
  call void @getLocks()
  ret void
}

; Function Attrs: nounwind uwtable
define hidden i32 @threadControl_suspendThread(ptr noundef %0, i8 noundef zeroext %1) #0 {
  %3 = alloca ptr, align 8
  %4 = alloca i8, align 1
  %5 = alloca i32, align 4
  %6 = alloca ptr, align 8
  store ptr %0, ptr %3, align 8
  store i8 %1, ptr %4, align 1
  %7 = call ptr @getEnv()
  store ptr %7, ptr %6, align 8
  %8 = load ptr, ptr %3, align 8
  call void @log_debugee_location(ptr noundef @.str.9, ptr noundef %8, ptr noundef null, i64 noundef 0)
  call void @preSuspend()
  %9 = load ptr, ptr %6, align 8
  %10 = load ptr, ptr %3, align 8
  %11 = load i8, ptr %4, align 1
  %12 = call i32 @commonSuspend(ptr noundef %9, ptr noundef %10, i8 noundef zeroext %11)
  store i32 %12, ptr %5, align 4
  call void @postSuspend()
  %13 = load i32, ptr %5, align 4
  ret i32 %13
}