; Function Attrs: nounwind uwtable
define hidden i32 @threadControl_suspendThread(ptr noundef %0, i8 noundef zeroext %1) local_unnamed_addr #0 {
  %3 = tail call ptr @getEnv() #6
  tail call void @log_debugee_location(ptr noundef nonnull @.str.9, ptr noundef %0, ptr noundef null, i64 noundef 0) #6
  tail call void @eventHandler_lock() #6
  tail call void @invoker_lock() #6
  tail call void @eventHelper_lock() #6
  tail call void @stepControl_lock() #6
  tail call void @commonRef_lock() #6
  %4 = load ptr, ptr @threadLock, align 8
  tail call void @debugMonitorEnter(ptr noundef %4) #6
  %5 = tail call fastcc i32 @commonSuspend(ptr noundef %3, ptr noundef %0, i8 noundef zeroext %1)
  %6 = load ptr, ptr @threadLock, align 8
  tail call void @debugMonitorExit(ptr noundef %6) #6
  tail call void @commonRef_unlock() #6
  tail call void @stepControl_unlock() #6
  tail call void @eventHelper_unlock() #6
  tail call void @invoker_unlock() #6
  tail call void @eventHandler_unlock() #6
  ret i32 %5
}